; Function Attrs: mustprogress uwtable
define internal fastcc noundef i32 @_ZL14whaminFileTypePc(ptr noundef %0) unnamed_addr #0 personality ptr @__gxx_personality_v0 {
  %2 = alloca %"class.std::filesystem::__cxx11::path", align 8
  %3 = tail call i64 @strlen(ptr noundef nonnull dereferenceable(1) %0) #26
  %sext = shl i64 %3, 32
  %4 = ashr exact i64 %sext, 32
  %5 = getelementptr inbounds i8, ptr %0, i64 %4
  %6 = getelementptr inbounds i8, ptr %5, i64 -3
  %7 = tail call i32 @strcmp(ptr noundef nonnull dereferenceable(1) %6, ptr noundef nonnull dereferenceable(4) @.str.278) #26
  %8 = icmp eq i32 %7, 0
  br i1 %8, label %20, label %9

9:                                                ; preds = %1
  %10 = tail call i32 @strcmp(ptr noundef nonnull dereferenceable(1) %6, ptr noundef nonnull dereferenceable(4) @.str.279) #26
  %11 = icmp eq i32 %10, 0
  br i1 %11, label %20, label %12

12:                                               ; preds = %9
  %13 = getelementptr inbounds i8, ptr %5, i64 -6
  %14 = tail call i32 @strcmp(ptr noundef nonnull dereferenceable(1) %13, ptr noundef nonnull dereferenceable(7) @.str.280) #26
  %15 = icmp eq i32 %14, 0
  br i1 %15, label %20, label %16

16:                                               ; preds = %12
  call void @_ZNSt10filesystem7__cxx114pathC2IA125_cS1_EERKT_NS1_6formatE(ptr noundef nonnull align 8 dereferenceable(40) %2, ptr noundef nonnull align 1 dereferenceable(125) @.str.219, i8 noundef zeroext 2)
  invoke void (i32, ptr, i32, ptr, ...) @_Z9gmx_fataliRKNSt10filesystem7__cxx114pathEiPKcz(i32 noundef 0, ptr noundef nonnull align 8 dereferenceable(40) %2, i32 noundef 1490, ptr noundef nonnull @.str.281, ptr noundef %0) #25
          to label %17 unwind label %18

17:                                               ; preds = %16
  unreachable

18:                                               ; preds = %16
  %19 = landingpad { ptr, i32 }
          cleanup
  call void @_ZNSt10filesystem7__cxx114pathD2Ev(ptr noundef nonnull align 8 dereferenceable(40) %2) #20
  resume { ptr, i32 } %19

20:                                               ; preds = %9, %12, %1
  %.0 = phi i32 [ 1, %1 ], [ 2, %12 ], [ 2, %9 ]
  ret i32 %.0
}